target datalayout = "e-m:e-p270:32:32-p271:32:32-p272:64:64-i64:64-i128:128-f80:128-n8:16:32:64-S128"
target triple = "x86_64-pc-linux-gnu"

%struct.LClosure = type { ptr, i8, i8, i8, ptr, ptr, [1 x ptr] }

; Function Attrs: nounwind uwtable
define hidden ptr @luaF_newLclosure(ptr noundef %0, i32 noundef %1) #0 {
  %3 = alloca ptr, align 8
  %4 = alloca i32, align 4
  %5 = alloca ptr, align 8
  %6 = alloca ptr, align 8
  store ptr %0, ptr %3, align 8, !tbaa !4
  store i32 %1, ptr %4, align 4, !tbaa !9
  call void @llvm.lifetime.start.p0(i64 8, ptr %5) #5
  %7 = load ptr, ptr %3, align 8, !tbaa !4
  %8 = load i32, ptr %4, align 4, !tbaa !9
  %9 = zext i32 %8 to i64
  %10 = mul i64 8, %9
  %11 = add i64 32, %10
  %12 = call ptr @luaC_newobj(ptr noundef %7, i8 noundef zeroext 6, i64 noundef %11)
  store ptr %12, ptr %5, align 8, !tbaa !11
  call void @llvm.lifetime.start.p0(i64 8, ptr %6) #5
  %13 = load ptr, ptr %5, align 8, !tbaa !11
  store ptr %13, ptr %6, align 8, !tbaa !17
  %14 = load ptr, ptr %6, align 8, !tbaa !17
  %15 = getelementptr inbounds nuw %struct.LClosure, ptr %14, i32 0, i32 5
  store ptr null, ptr %15, align 8, !tbaa !19
  %16 = load i32, ptr %4, align 4, !tbaa !9
  %17 = trunc i32 %16 to i8
  %18 = load ptr, ptr %6, align 8, !tbaa !17
  %19 = getelementptr inbounds nuw %struct.LClosure, ptr %18, i32 0, i32 3
  store i8 %17, ptr %19, align 2, !tbaa !22
  br label %20

20:                                               ; preds = %24, %2
  %21 = load i32, ptr %4, align 4, !tbaa !9
  %22 = add nsw i32 %21, -1
  store i32 %22, ptr %4, align 4, !tbaa !9
  %23 = icmp ne i32 %21, 0
  br i1 %23, label %24, label %30

24:                                               ; preds = %20
  %25 = load ptr, ptr %6, align 8, !tbaa !17
  %26 = getelementptr inbounds nuw %struct.LClosure, ptr %25, i32 0, i32 6
  %27 = load i32, ptr %4, align 4, !tbaa !9
  %28 = sext i32 %27 to i64
  %29 = getelementptr inbounds [1 x ptr], ptr %26, i64 0, i64 %28
  store ptr null, ptr %29, align 8, !tbaa !23
  br label %20

30:                                               ; preds = %20
  %31 = load ptr, ptr %6, align 8, !tbaa !17
  call void @llvm.lifetime.end.p0(i64 8, ptr %6) #5
  call void @llvm.lifetime.end.p0(i64 8, ptr %5) #5
  ret ptr %31
}