; Function Attrs: nounwind uwtable
define hidden ptr @luaF_newLclosure(ptr noundef %0, i32 noundef %1) local_unnamed_addr #0 {
  %3 = zext i32 %1 to i64
  %4 = shl nuw nsw i64 %3, 3
  %5 = add nuw nsw i64 %4, 32
  %6 = tail call ptr @luaC_newobj(ptr noundef %0, i8 noundef zeroext 6, i64 noundef %5) #7
  %7 = getelementptr inbounds nuw i8, ptr %6, i64 24
  store ptr null, ptr %7, align 8, !tbaa !10
  %8 = trunc i32 %1 to i8
  %9 = getelementptr inbounds nuw i8, ptr %6, i64 10
  store i8 %8, ptr %9, align 2, !tbaa !13
  %.not9 = icmp eq i32 %1, 0
  br i1 %.not9, label %._crit_edge, label %.lr.ph

.lr.ph:                                           ; preds = %2
  %10 = add i32 %1, -1
  %11 = sext i32 %10 to i64
  %12 = shl nsw i64 %11, 3
  %13 = add nsw i64 %12, 32
  %14 = zext i32 %10 to i64
  %15 = shl nuw nsw i64 %14, 3
  %16 = sub nsw i64 %13, %15
  %scevgep = getelementptr i8, ptr %6, i64 %16
  tail call void @llvm.memset.p0.i64(ptr align 8 %scevgep, i8 0, i64 %4, i1 false), !tbaa !14
  br label %._crit_edge

._crit_edge:                                      ; preds = %.lr.ph, %2
  ret ptr %6
}